; Function Attrs: mustprogress uwtable
define void @_ZN7rocksdb3LogENS_12InfoLogLevelEPNS_6LoggerEPKcz(i8 noundef zeroext %0, ptr noundef %1, ptr noundef %2, ...) local_unnamed_addr #4 {
  %4 = alloca [1 x %struct.__va_list_tag], align 16
  call void @llvm.lifetime.start.p0(i64 24, ptr nonnull %4) #37
  call void @llvm.va_start.p0(ptr nonnull %4)
  %.not.i = icmp eq ptr %1, null
  br i1 %.not.i, label %_ZN7rocksdbL4LogvENS_12InfoLogLevelEPNS_6LoggerEPKcP13__va_list_tag.exit, label %5

5:                                                ; preds = %3
  %6 = load ptr, ptr %1, align 8, !tbaa !18
  %7 = getelementptr inbounds nuw i8, ptr %6, i64 64
  %8 = load ptr, ptr %7, align 8
  %9 = call noundef zeroext i8 %8(ptr noundef nonnull align 8 dereferenceable(10) %1)
  %.not11.i = icmp ugt i8 %9, %0
  br i1 %.not11.i, label %_ZN7rocksdbL4LogvENS_12InfoLogLevelEPNS_6LoggerEPKcP13__va_list_tag.exit, label %10

10:                                               ; preds = %5
  %11 = icmp eq i8 %0, 5
  %12 = load ptr, ptr %1, align 8, !tbaa !18
  br i1 %11, label %13, label %16

13:                                               ; preds = %10
  %14 = getelementptr inbounds nuw i8, ptr %12, i64 24
  %15 = load ptr, ptr %14, align 8
  call void %15(ptr noundef nonnull align 8 dereferenceable(10) %1, ptr noundef %2, ptr noundef nonnull %4)
  br label %_ZN7rocksdbL4LogvENS_12InfoLogLevelEPNS_6LoggerEPKcP13__va_list_tag.exit

16:                                               ; preds = %10
  %17 = getelementptr inbounds nuw i8, ptr %12, i64 40
  %18 = load ptr, ptr %17, align 8
  call void %18(ptr noundef nonnull align 8 dereferenceable(10) %1, i8 noundef zeroext %0, ptr noundef %2, ptr noundef nonnull %4)
  br label %_ZN7rocksdbL4LogvENS_12InfoLogLevelEPNS_6LoggerEPKcP13__va_list_tag.exit

_ZN7rocksdbL4LogvENS_12InfoLogLevelEPNS_6LoggerEPKcP13__va_list_tag.exit: ; preds = %3, %5, %13, %16
  call void @llvm.va_end.p0(ptr nonnull %4)
  call void @llvm.lifetime.end.p0(i64 24, ptr nonnull %4) #37
  ret void
}